target datalayout = "e-m:e-p270:32:32-p271:32:32-p272:64:64-i64:64-i128:128-f80:128-n8:16:32:64-S128"
target triple = "x86_64-pc-linux-gnu"

%struct.JsonbInState = type { ptr, ptr, i8, ptr }

; Function Attrs: inlinehint nounwind uwtable
define internal i64 @PointerGetDatum(ptr noundef %0) #2 {
  %2 = alloca ptr, align 8
  store ptr %0, ptr %2, align 8
  %3 = load ptr, ptr %2, align 8
  %4 = ptrtoint ptr %3 to i64
  ret i64 %4
}

; Function Attrs: nounwind uwtable
define dso_local i64 @jsonb_build_array_noargs(ptr noundef %0) #0 {
  %2 = alloca ptr, align 8
  %3 = alloca %struct.JsonbInState, align 8
  store ptr %0, ptr %2, align 8
  call void @llvm.lifetime.start.p0(i64 32, ptr %3) #8
  call void @llvm.memset.p0.i64(ptr align 8 %3, i8 0, i64 32, i1 false)
  %4 = getelementptr inbounds nuw %struct.JsonbInState, ptr %3, i32 0, i32 0
  %5 = call ptr @pushJsonbValue(ptr noundef %4, i32 noundef 4, ptr noundef null)
  %6 = getelementptr inbounds nuw %struct.JsonbInState, ptr %3, i32 0, i32 0
  %7 = call ptr @pushJsonbValue(ptr noundef %6, i32 noundef 5, ptr noundef null)
  %8 = getelementptr inbounds nuw %struct.JsonbInState, ptr %3, i32 0, i32 1
  store ptr %7, ptr %8, align 8
  %9 = getelementptr inbounds nuw %struct.JsonbInState, ptr %3, i32 0, i32 1
  %10 = load ptr, ptr %9, align 8
  %11 = call ptr @JsonbValueToJsonb(ptr noundef %10)
  %12 = call i64 @PointerGetDatum(ptr noundef %11)
  call void @llvm.lifetime.end.p0(i64 32, ptr %3) #8
  ret i64 %12
}